; Function Attrs: mustprogress uwtable
define hidden void @_ZN3euf9ac_plugin13register_nodeEPNS_5enodeE(ptr noundef nonnull align 8 dereferenceable(432) %0, ptr noundef readonly captures(address) %1) unnamed_addr #3 align 2 {
  %3 = load ptr, ptr %1, align 8, !tbaa !123
  %4 = getelementptr inbounds nuw i8, ptr %3, i64 4
  %5 = load i32, ptr %4, align 4
  %6 = and i32 %5, 65535
  %7 = icmp eq i32 %6, 0
  br i1 %7, label %_ZNK3euf5enode8get_declEv.exit.i, label %_ZNK3euf9ac_plugin5is_opEPNS_5enodeE.exit.thread

_ZNK3euf5enode8get_declEv.exit.i:                 ; preds = %2
  %8 = getelementptr inbounds nuw i8, ptr %3, i64 16
  %9 = load ptr, ptr %8, align 8, !tbaa !132
  %.not.i = icmp eq ptr %9, null
  br i1 %.not.i, label %_ZNK3euf9ac_plugin5is_opEPNS_5enodeE.exit.thread, label %10

10:                                               ; preds = %_ZNK3euf5enode8get_declEv.exit.i
  %11 = getelementptr inbounds nuw i8, ptr %0, i64 24
  %12 = load ptr, ptr %11, align 8, !tbaa !122
  %13 = icmp eq ptr %9, %12
  br i1 %13, label %_ZNK3euf9ac_plugin5is_opEPNS_5enodeE.exit.thread19, label %14

14:                                               ; preds = %10
  %15 = getelementptr inbounds nuw i8, ptr %0, i64 16
  %16 = load i32, ptr %15, align 8, !tbaa !10
  %17 = getelementptr inbounds nuw i8, ptr %9, i64 24
  %18 = load ptr, ptr %17, align 8, !tbaa !112
  %19 = icmp eq ptr %18, null
  br i1 %19, label %_ZNK4decl13get_family_idEv.exit.i, label %_ZNK4decl13get_family_idEv.exit.thread.i

_ZNK4decl13get_family_idEv.exit.i:                ; preds = %14
  %20 = icmp eq i32 %16, -1
  br i1 %20, label %_ZNK3euf9ac_plugin5is_opEPNS_5enodeE.exit, label %_ZNK3euf9ac_plugin5is_opEPNS_5enodeE.exit.thread

_ZNK4decl13get_family_idEv.exit.thread.i:         ; preds = %14
  %21 = load i32, ptr %18, align 8, !tbaa !117
  %22 = icmp eq i32 %16, %21
  br i1 %22, label %23, label %_ZNK3euf9ac_plugin5is_opEPNS_5enodeE.exit.thread

23:                                               ; preds = %_ZNK4decl13get_family_idEv.exit.thread.i
  %24 = getelementptr inbounds nuw i8, ptr %18, i64 4
  %25 = load i32, ptr %24, align 4, !tbaa !136
  br label %_ZNK3euf9ac_plugin5is_opEPNS_5enodeE.exit

_ZNK3euf9ac_plugin5is_opEPNS_5enodeE.exit:        ; preds = %_ZNK4decl13get_family_idEv.exit.i, %23
  %26 = phi i32 [ %25, %23 ], [ -1, %_ZNK4decl13get_family_idEv.exit.i ]
  %.in.i = getelementptr inbounds nuw i8, ptr %0, i64 20
  %27 = load i32, ptr %.in.i, align 4, !tbaa !73
  %28 = icmp eq i32 %27, %26
  br i1 %28, label %_ZNK3euf9ac_plugin5is_opEPNS_5enodeE.exit.thread19, label %_ZNK3euf9ac_plugin5is_opEPNS_5enodeE.exit.thread

_ZNK3euf9ac_plugin5is_opEPNS_5enodeE.exit.thread: ; preds = %2, %_ZNK4decl13get_family_idEv.exit.thread.i, %_ZNK4decl13get_family_idEv.exit.i, %_ZNK3euf5enode8get_declEv.exit.i, %_ZNK3euf9ac_plugin5is_opEPNS_5enodeE.exit
  %29 = getelementptr inbounds nuw i8, ptr %1, i64 152
  %30 = load i32, ptr %29, align 8, !tbaa !137
  %31 = zext i32 %30 to i64
  %.idx = shl nuw nsw i64 %31, 3
  %32 = getelementptr inbounds nuw i8, ptr %1, i64 %.idx
  %.ptr23 = getelementptr inbounds nuw i8, ptr %32, i64 176
  %.not21 = icmp eq i32 %30, 0
  br i1 %.not21, label %_ZNK3euf9ac_plugin5is_opEPNS_5enodeE.exit.thread19, label %.lr.ph

.lr.ph:                                           ; preds = %_ZNK3euf9ac_plugin5is_opEPNS_5enodeE.exit.thread
  %.ptr = getelementptr inbounds nuw i8, ptr %1, i64 176
  %33 = getelementptr inbounds nuw i8, ptr %0, i64 24
  %34 = getelementptr inbounds nuw i8, ptr %0, i64 16
  %.in.i15 = getelementptr inbounds nuw i8, ptr %0, i64 20
  br label %35

35:                                               ; preds = %.lr.ph, %_ZNK3euf9ac_plugin5is_opEPNS_5enodeE.exit17.thread
  %.022 = phi ptr [ %.ptr, %.lr.ph ], [ %61, %_ZNK3euf9ac_plugin5is_opEPNS_5enodeE.exit17.thread ]
  %36 = load ptr, ptr %.022, align 8, !tbaa !138
  %37 = load ptr, ptr %36, align 8, !tbaa !123
  %38 = getelementptr inbounds nuw i8, ptr %37, i64 4
  %39 = load i32, ptr %38, align 4
  %40 = and i32 %39, 65535
  %41 = icmp eq i32 %40, 0
  br i1 %41, label %_ZNK3euf5enode8get_declEv.exit.i11, label %_ZNK3euf9ac_plugin5is_opEPNS_5enodeE.exit17.thread

_ZNK3euf5enode8get_declEv.exit.i11:               ; preds = %35
  %42 = getelementptr inbounds nuw i8, ptr %37, i64 16
  %43 = load ptr, ptr %42, align 8, !tbaa !132
  %.not.i12 = icmp eq ptr %43, null
  br i1 %.not.i12, label %_ZNK3euf9ac_plugin5is_opEPNS_5enodeE.exit17.thread, label %44

44:                                               ; preds = %_ZNK3euf5enode8get_declEv.exit.i11
  %45 = load ptr, ptr %33, align 8, !tbaa !122
  %46 = icmp eq ptr %43, %45
  br i1 %46, label %_ZNK3euf9ac_plugin5is_opEPNS_5enodeE.exit17.thread20, label %47

47:                                               ; preds = %44
  %48 = load i32, ptr %34, align 8, !tbaa !10
  %49 = getelementptr inbounds nuw i8, ptr %43, i64 24
  %50 = load ptr, ptr %49, align 8, !tbaa !112
  %51 = icmp eq ptr %50, null
  br i1 %51, label %_ZNK4decl13get_family_idEv.exit.i16, label %_ZNK4decl13get_family_idEv.exit.thread.i13

_ZNK4decl13get_family_idEv.exit.i16:              ; preds = %47
  %52 = icmp eq i32 %48, -1
  br i1 %52, label %_ZNK3euf9ac_plugin5is_opEPNS_5enodeE.exit17, label %_ZNK3euf9ac_plugin5is_opEPNS_5enodeE.exit17.thread

_ZNK4decl13get_family_idEv.exit.thread.i13:       ; preds = %47
  %53 = load i32, ptr %50, align 8, !tbaa !117
  %54 = icmp eq i32 %48, %53
  br i1 %54, label %55, label %_ZNK3euf9ac_plugin5is_opEPNS_5enodeE.exit17.thread

55:                                               ; preds = %_ZNK4decl13get_family_idEv.exit.thread.i13
  %56 = getelementptr inbounds nuw i8, ptr %50, i64 4
  %57 = load i32, ptr %56, align 4, !tbaa !136
  br label %_ZNK3euf9ac_plugin5is_opEPNS_5enodeE.exit17

_ZNK3euf9ac_plugin5is_opEPNS_5enodeE.exit17:      ; preds = %_ZNK4decl13get_family_idEv.exit.i16, %55
  %58 = phi i32 [ %57, %55 ], [ -1, %_ZNK4decl13get_family_idEv.exit.i16 ]
  %59 = load i32, ptr %.in.i15, align 4, !tbaa !73
  %60 = icmp eq i32 %59, %58
  br i1 %60, label %_ZNK3euf9ac_plugin5is_opEPNS_5enodeE.exit17.thread20, label %_ZNK3euf9ac_plugin5is_opEPNS_5enodeE.exit17.thread

_ZNK3euf9ac_plugin5is_opEPNS_5enodeE.exit17.thread20: ; preds = %44, %_ZNK3euf9ac_plugin5is_opEPNS_5enodeE.exit17
  tail call void @_ZN3euf9ac_plugin15register_sharedEPNS_5enodeE(ptr noundef nonnull align 8 dereferenceable(432) %0, ptr noundef nonnull %36)
  br label %_ZNK3euf9ac_plugin5is_opEPNS_5enodeE.exit17.thread

_ZNK3euf9ac_plugin5is_opEPNS_5enodeE.exit17.thread: ; preds = %35, %_ZNK4decl13get_family_idEv.exit.thread.i13, %_ZNK4decl13get_family_idEv.exit.i16, %_ZNK3euf5enode8get_declEv.exit.i11, %_ZNK3euf9ac_plugin5is_opEPNS_5enodeE.exit17.thread20, %_ZNK3euf9ac_plugin5is_opEPNS_5enodeE.exit17
  %61 = getelementptr inbounds nuw i8, ptr %.022, i64 8
  %.not = icmp eq ptr %61, %.ptr23
  br i1 %.not, label %_ZNK3euf9ac_plugin5is_opEPNS_5enodeE.exit.thread19, label %35

_ZNK3euf9ac_plugin5is_opEPNS_5enodeE.exit.thread19: ; preds = %_ZNK3euf9ac_plugin5is_opEPNS_5enodeE.exit17.thread, %_ZNK3euf9ac_plugin5is_opEPNS_5enodeE.exit.thread, %10, %_ZNK3euf9ac_plugin5is_opEPNS_5enodeE.exit
  ret void
}